; Function Attrs: cold noreturn nounwind uwtable
define dso_local void @report_fatal_error(ptr noalias noundef %0, ...) local_unnamed_addr #9 {
  %2 = alloca [1 x %struct.__va_list_tag], align 16
  call void @llvm.lifetime.start.p0(i64 24, ptr nonnull %2) #21
  call void @llvm.va_start.p0(ptr nonnull %2)
  call void @pg_log_generic_v(i32 noundef 4, i32 noundef 0, ptr noundef %0, ptr noundef nonnull %2) #21
  call void @llvm.va_end.p0(ptr nonnull %2)
  call void @exit(i32 noundef 1) #24
  unreachable
}